; ModuleID = '27/1376.c'
source_filename = "27/1376.c"
target datalayout = "e-m:e-p270:32:32-p271:32:32-p272:64:64-i64:64-f80:128-n8:16:32:64-S128"
target triple = "x86_64-pc-linux-gnu"

@.str = private unnamed_addr constant [3 x i8] c"%d\00", align 1
@.str.1 = private unnamed_addr constant [10 x i8] c"%lf%lf%lf\00", align 1
@.str.2 = private unnamed_addr constant [19 x i8] c"x1=%.5lf;x2=%.5lf\0A\00", align 1
@.str.3 = private unnamed_addr constant [13 x i8] c"x1=x2=%.5lf\0A\00", align 1
@.str.4 = private unnamed_addr constant [33 x i8] c"x1=%.5lf+%.5lfi;x2=%.5lf-%.5lfi\0A\00", align 1

; Function Attrs: noinline nounwind uwtable
define dso_local i32 @main() #0 {
  %1 = alloca i32, align 4
  %2 = alloca i32, align 4
  %3 = alloca i32, align 4
  %4 = alloca double, align 8
  %5 = alloca double, align 8
  %6 = alloca double, align 8
  %7 = alloca double, align 8
  %8 = alloca double, align 8
  %9 = alloca double, align 8
  %10 = alloca double, align 8
  %11 = alloca double, align 8
  store i32 0, i32* %1, align 4
  %12 = call i32 (i8*, ...) @__isoc99_scanf(i8* getelementptr inbounds ([3 x i8], [3 x i8]* @.str, i64 0, i64 0), i32* %2)
  store i32 1, i32* %3, align 4
  br label %13

13:                                               ; preds = %112, %0
  %14 = load i32, i32* %3, align 4
  %15 = load i32, i32* %2, align 4
  %16 = icmp sle i32 %14, %15
  br i1 %16, label %17, label %115

17:                                               ; preds = %13
  %18 = call i32 (i8*, ...) @__isoc99_scanf(i8* getelementptr inbounds ([10 x i8], [10 x i8]* @.str.1, i64 0, i64 0), double* %4, double* %5, double* %6)
  %19 = load double, double* %5, align 8
  %20 = load double, double* %5, align 8
  %21 = fmul double %19, %20
  %22 = load double, double* %4, align 8
  %23 = fmul double 4.000000e+00, %22
  %24 = load double, double* %6, align 8
  %25 = fmul double %23, %24
  %26 = fsub double %21, %25
  %27 = fcmp ogt double %26, 0.000000e+00
  br i1 %27, label %28, label %68

28:                                               ; preds = %17
  %29 = load double, double* %5, align 8
  %30 = load double, double* %4, align 8
  %31 = fmul double 2.000000e+00, %30
  %32 = fdiv double %29, %31
  %33 = fneg double %32
  %34 = load double, double* %5, align 8
  %35 = load double, double* %5, align 8
  %36 = fmul double %34, %35
  %37 = load double, double* %4, align 8
  %38 = fmul double 4.000000e+00, %37
  %39 = load double, double* %6, align 8
  %40 = fmul double %38, %39
  %41 = fsub double %36, %40
  %42 = call double @sqrt(double %41) #3
  %43 = load double, double* %4, align 8
  %44 = fmul double 2.000000e+00, %43
  %45 = fdiv double %42, %44
  %46 = fadd double %33, %45
  store double %46, double* %7, align 8
  %47 = load double, double* %5, align 8
  %48 = load double, double* %4, align 8
  %49 = fmul double 2.000000e+00, %48
  %50 = fdiv double %47, %49
  %51 = fneg double %50
  %52 = load double, double* %5, align 8
  %53 = load double, double* %5, align 8
  %54 = fmul double %52, %53
  %55 = load double, double* %4, align 8
  %56 = fmul double 4.000000e+00, %55
  %57 = load double, double* %6, align 8
  %58 = fmul double %56, %57
  %59 = fsub double %54, %58
  %60 = call double @sqrt(double %59) #3
  %61 = load double, double* %4, align 8
  %62 = fmul double 2.000000e+00, %61
  %63 = fdiv double %60, %62
  %64 = fsub double %51, %63
  store double %64, double* %8, align 8
  %65 = load double, double* %7, align 8
  %66 = load double, double* %8, align 8
  %67 = call i32 (i8*, ...) @printf(i8* getelementptr inbounds ([19 x i8], [19 x i8]* @.str.2, i64 0, i64 0), double %65, double %66)
  br label %111

68:                                               ; preds = %17
  %69 = load double, double* %5, align 8
  %70 = load double, double* %5, align 8
  %71 = fmul double %69, %70
  %72 = load double, double* %4, align 8
  %73 = fmul double 4.000000e+00, %72
  %74 = load double, double* %6, align 8
  %75 = fmul double %73, %74
  %76 = fsub double %71, %75
  %77 = fcmp oeq double %76, 0.000000e+00
  br i1 %77, label %78, label %86

78:                                               ; preds = %68
  %79 = load double, double* %5, align 8
  %80 = fneg double %79
  %81 = load double, double* %4, align 8
  %82 = fmul double 2.000000e+00, %81
  %83 = fdiv double %80, %82
  store double %83, double* %10, align 8
  %84 = load double, double* %10, align 8
  %85 = call i32 (i8*, ...) @printf(i8* getelementptr inbounds ([13 x i8], [13 x i8]* @.str.3, i64 0, i64 0), double %84)
  br label %110

86:                                               ; preds = %68
  %87 = load double, double* %5, align 8
  %88 = fneg double %87
  %89 = load double, double* %4, align 8
  %90 = fmul double 2.000000e+00, %89
  %91 = fdiv double %88, %90
  store double %91, double* %9, align 8
  %92 = load double, double* %5, align 8
  %93 = load double, double* %5, align 8
  %94 = fmul double %92, %93
  %95 = load double, double* %4, align 8
  %96 = fmul double 4.000000e+00, %95
  %97 = load double, double* %6, align 8
  %98 = fmul double %96, %97
  %99 = fsub double %94, %98
  %100 = fneg double %99
  %101 = call double @sqrt(double %100) #3
  %102 = load double, double* %4, align 8
  %103 = fmul double 2.000000e+00, %102
  %104 = fdiv double %101, %103
  store double %104, double* %11, align 8
  %105 = load double, double* %9, align 8
  %106 = load double, double* %11, align 8
  %107 = load double, double* %9, align 8
  %108 = load double, double* %11, align 8
  %109 = call i32 (i8*, ...) @printf(i8* getelementptr inbounds ([33 x i8], [33 x i8]* @.str.4, i64 0, i64 0), double %105, double %106, double %107, double %108)
  br label %110

110:                                              ; preds = %86, %78
  br label %111

111:                                              ; preds = %110, %28
  br label %112

112:                                              ; preds = %111
  %113 = load i32, i32* %3, align 4
  %114 = add nsw i32 %113, 1
  store i32 %114, i32* %3, align 4
  br label %13

115:                                              ; preds = %13
  ret i32 0
}

declare dso_local i32 @__isoc99_scanf(i8*, ...) #1

; Function Attrs: nounwind
declare dso_local double @sqrt(double) #2

declare dso_local i32 @printf(i8*, ...) #1


!llvm.module.flags = !{!0}
!llvm.ident = !{!1}

!0 = !{i32 1, !"wchar_size", i32 4}
!1 = !{!"clang version 10.0.0-4ubuntu1 "}
