; ModuleID = 'source-C-CXX/26/1376.c'
source_filename = "source-C-CXX/26/1376.c"
target datalayout = "e-m:e-p270:32:32-p271:32:32-p272:64:64-i64:64-f80:128-n8:16:32:64-S128"
target triple = "x86_64-pc-linux-gnu"

@.str = private unnamed_addr constant [3 x i8] c"%d\00", align 1
@.str.1 = private unnamed_addr constant [10 x i8] c"%lf%lf%lf\00", align 1
@.str.2 = private unnamed_addr constant [19 x i8] c"x1=%.5lf;x2=%.5lf\0A\00", align 1
@.str.3 = private unnamed_addr constant [13 x i8] c"x1=x2=%.5lf\0A\00", align 1
@.str.4 = private unnamed_addr constant [33 x i8] c"x1=%.5lf+%.5lfi;x2=%.5lf-%.5lfi\0A\00", align 1

; Function Attrs: nofree nounwind sspstrong uwtable
define dso_local i32 @main() local_unnamed_addr #0 {
  %1 = alloca i32, align 4
  %2 = alloca double, align 8
  %3 = alloca double, align 8
  %4 = alloca double, align 8
  %5 = bitcast i32* %1 to i8*
  call void @llvm.lifetime.start.p0i8(i64 4, i8* nonnull %5) #4
  %6 = bitcast double* %2 to i8*
  call void @llvm.lifetime.start.p0i8(i64 8, i8* nonnull %6) #4
  %7 = bitcast double* %3 to i8*
  call void @llvm.lifetime.start.p0i8(i64 8, i8* nonnull %7) #4
  %8 = bitcast double* %4 to i8*
  call void @llvm.lifetime.start.p0i8(i64 8, i8* nonnull %8) #4
  %9 = call i32 (i8*, ...) @__isoc99_scanf(i8* getelementptr inbounds ([3 x i8], [3 x i8]* @.str, i64 0, i64 0), i32* nonnull %1)
  %10 = load i32, i32* %1, align 4, !tbaa !5
  %11 = icmp slt i32 %10, 1
  br i1 %11, label %71, label %12

12:                                               ; preds = %0, %67
  %13 = phi i32 [ %68, %67 ], [ 1, %0 ]
  %14 = call i32 (i8*, ...) @__isoc99_scanf(i8* getelementptr inbounds ([10 x i8], [10 x i8]* @.str.1, i64 0, i64 0), double* nonnull %2, double* nonnull %3, double* nonnull %4)
  %15 = load double, double* %3, align 8, !tbaa !9
  %16 = fmul double %15, %15
  %17 = load double, double* %2, align 8, !tbaa !9
  %18 = fmul double %17, 4.000000e+00
  %19 = load double, double* %4, align 8, !tbaa !9
  %20 = fmul double %18, %19
  %21 = fsub double %16, %20
  %22 = fcmp ogt double %21, 0.000000e+00
  br i1 %22, label %23, label %53

23:                                               ; preds = %12
  %24 = call double @sqrt(double %21) #4
  %25 = load double, double* %2, align 8, !tbaa !9
  %26 = insertelement <2 x double> poison, double %25, i32 0
  %27 = insertelement <2 x double> %26, double %17, i32 1
  %28 = fmul <2 x double> %27, <double 2.000000e+00, double 2.000000e+00>
  %29 = insertelement <2 x double> poison, double %24, i32 0
  %30 = insertelement <2 x double> %29, double %15, i32 1
  %31 = fdiv <2 x double> %30, %28
  %32 = shufflevector <2 x double> %31, <2 x double> poison, <2 x i32> <i32 1, i32 undef>
  %33 = fsub <2 x double> %31, %32
  %34 = extractelement <2 x double> %33, i32 0
  %35 = load double, double* %3, align 8, !tbaa !9
  %36 = fneg double %35
  %37 = fmul double %35, %35
  %38 = fmul double %25, 4.000000e+00
  %39 = load double, double* %4, align 8, !tbaa !9
  %40 = fmul double %38, %39
  %41 = fsub double %37, %40
  %42 = call double @sqrt(double %41) #4
  %43 = load double, double* %2, align 8, !tbaa !9
  %44 = fmul double %43, 2.000000e+00
  %45 = insertelement <2 x double> poison, double %36, i32 0
  %46 = insertelement <2 x double> %45, double %42, i32 1
  %47 = insertelement <2 x double> %28, double %44, i32 1
  %48 = fdiv <2 x double> %46, %47
  %49 = shufflevector <2 x double> %48, <2 x double> poison, <2 x i32> <i32 1, i32 undef>
  %50 = fsub <2 x double> %48, %49
  %51 = extractelement <2 x double> %50, i32 0
  %52 = call i32 (i8*, ...) @printf(i8* nonnull dereferenceable(1) getelementptr inbounds ([19 x i8], [19 x i8]* @.str.2, i64 0, i64 0), double %34, double %51)
  br label %67

53:                                               ; preds = %12
  %54 = fcmp oeq double %21, 0.000000e+00
  %55 = fneg double %15
  %56 = fmul double %17, 2.000000e+00
  %57 = fdiv double %55, %56
  br i1 %54, label %58, label %60

58:                                               ; preds = %53
  %59 = call i32 (i8*, ...) @printf(i8* nonnull dereferenceable(1) getelementptr inbounds ([13 x i8], [13 x i8]* @.str.3, i64 0, i64 0), double %57)
  br label %67

60:                                               ; preds = %53
  %61 = fneg double %21
  %62 = call double @sqrt(double %61) #4
  %63 = load double, double* %2, align 8, !tbaa !9
  %64 = fmul double %63, 2.000000e+00
  %65 = fdiv double %62, %64
  %66 = call i32 (i8*, ...) @printf(i8* nonnull dereferenceable(1) getelementptr inbounds ([33 x i8], [33 x i8]* @.str.4, i64 0, i64 0), double %57, double %65, double %57, double %65)
  br label %67

67:                                               ; preds = %23, %60, %58
  %68 = add nuw nsw i32 %13, 1
  %69 = load i32, i32* %1, align 4, !tbaa !5
  %70 = icmp slt i32 %13, %69
  br i1 %70, label %12, label %71, !llvm.loop !11

71:                                               ; preds = %67, %0
  call void @llvm.lifetime.end.p0i8(i64 8, i8* nonnull %8) #4
  call void @llvm.lifetime.end.p0i8(i64 8, i8* nonnull %7) #4
  call void @llvm.lifetime.end.p0i8(i64 8, i8* nonnull %6) #4
  call void @llvm.lifetime.end.p0i8(i64 4, i8* nonnull %5) #4
  ret i32 0
}

; Function Attrs: argmemonly mustprogress nofree nosync nounwind willreturn
declare void @llvm.lifetime.start.p0i8(i64 immarg, i8* nocapture) #1

; Function Attrs: nofree nounwind
declare noundef i32 @__isoc99_scanf(i8* nocapture noundef readonly, ...) local_unnamed_addr #2

; Function Attrs: mustprogress nofree nounwind willreturn
declare double @sqrt(double) local_unnamed_addr #3

; Function Attrs: nofree nounwind
declare noundef i32 @printf(i8* nocapture noundef readonly, ...) local_unnamed_addr #2

; Function Attrs: argmemonly mustprogress nofree nosync nounwind willreturn
declare void @llvm.lifetime.end.p0i8(i64 immarg, i8* nocapture) #1


!llvm.module.flags = !{!0, !1, !2, !3}
!llvm.ident = !{!4}

!0 = !{i32 1, !"wchar_size", i32 4}
!1 = !{i32 7, !"PIC Level", i32 2}
!2 = !{i32 7, !"PIE Level", i32 2}
!3 = !{i32 7, !"uwtable", i32 1}
!4 = !{!"clang version 13.0.0"}
!5 = !{!6, !6, i64 0}
!6 = !{!"int", !7, i64 0}
!7 = !{!"omnipotent char", !8, i64 0}
!8 = !{!"Simple C/C++ TBAA"}
!9 = !{!10, !10, i64 0}
!10 = !{!"double", !7, i64 0}
!11 = distinct !{!11, !12}
!12 = !{!"llvm.loop.mustprogress"}
